(dp1
S'twisted_reactors'
p2
ccopy_reg
_reconstructor
p3
(ctwisted.plugin
CachedDropin
p4
c__builtin__
object
p5
NtRp6
(dp7
S'moduleName'
p8
S'twisted.plugins.twisted_reactors'
p9
sS'description'
p10
NsS'plugins'
p11
(lp12
g3
(ctwisted.plugin
CachedPlugin
p13
g5
NtRp14
(dp15
S'provided'
p16
(lp17
ctwisted.plugin
IPlugin
p18
actwisted.application.reactors
IReactorInstaller
p19
asS'dropin'
p20
g6
sS'name'
p21
S'win32er'
p22
sg10
S'\n    @ivar moduleName: The fully-qualified Python name of the module of which\n    the install callable is an attribute.\n    '
p23
sbag3
(g13
g5
NtRp24
(dp25
g16
(lp26
g18
ag19
asg20
g6
sg21
S'gi'
p27
sg10
g23
sbag3
(g13
g5
NtRp28
(dp29
g16
(lp30
g18
ag19
asg20
g6
sg21
S'kqueue'
p31
sg10
g23
sbag3
(g13
g5
NtRp32
(dp33
g16
(lp34
g18
ag19
asg20
g6
sg21
S'poll'
p35
sg10
g23
sbag3
(g13
g5
NtRp36
(dp37
g16
(lp38
g18
ag19
asg20
g6
sg21
S'iocp'
p39
sg10
g23
sbag3
(g13
g5
NtRp40
(dp41
g16
(lp42
g18
ag19
asg20
g6
sg21
S'select'
p43
sg10
g23
sbag3
(g13
g5
NtRp44
(dp45
g16
(lp46
g18
ag19
asg20
g6
sg21
S'epoll'
p47
sg10
g23
sbag3
(g13
g5
NtRp48
(dp49
g16
(lp50
g18
ag19
asg20
g6
sg21
S'gtk2'
p51
sg10
g23
sbag3
(g13
g5
NtRp52
(dp53
g16
(lp54
g18
ag19
asg20
g6
sg21
S'gtk3'
p55
sg10
g23
sbag3
(g13
g5
NtRp56
(dp57
g16
(lp58
g18
ag19
asg20
g6
sg21
S'wx'
p59
sg10
g23
sbag3
(g13
g5
NtRp60
(dp61
g16
(lp62
g18
ag19
asg20
g6
sg21
S'default'
p63
sg10
g23
sbag3
(g13
g5
NtRp64
(dp65
g16
(lp66
g18
ag19
asg20
g6
sg21
S'cf'
p67
sg10
g23
sbag3
(g13
g5
NtRp68
(dp69
g16
(lp70
g18
ag19
asg20
g6
sg21
S'glib2'
p71
sg10
g23
sbasbsS'cred_memory'
p72
g3
(g4
g5
NtRp73
(dp74
g8
S'twisted.plugins.cred_memory'
p75
sg10
S'\nCred plugin for an in-memory user database.\n'
p76
sg11
(lp77
g3
(g13
g5
NtRp78
(dp79
g16
(lp80
ctwisted.cred.strcred
ICheckerFactory
p81
ag18
asg20
g73
sg21
S'theInMemoryCheckerFactory'
p82
sg10
S"\n    A factory for in-memory credentials checkers.\n\n    This is only of use in one-off test programs or examples which don't\n    want to focus too much on how credentials are verified.\n\n    You really don't want to use this for anything else.  It is, at best, a\n    toy.  If you need a simple credentials checker for a real application,\n    see L{cred_file.FileCheckerFactory}.\n    "
p83
sbasbsS'twisted_web'
p84
g3
(g4
g5
NtRp85
(dp86
g8
S'twisted.plugins.twisted_web'
p87
sg10
Nsg11
(lp88
g3
(g13
g5
NtRp89
(dp90
g16
(lp91
g18
actwisted.application.service
IServiceMaker
p92
asg20
g85
sg21
S'TwistedWeb'
p93
sg10
S'\n    Utility class to simplify the definition of L{IServiceMaker} plugins.\n    '
p94
sbasbsS'twisted_conch'
p95
g3
(g4
g5
NtRp96
(dp97
g8
S'twisted.plugins.twisted_conch'
p98
sg10
Nsg11
(lp99
g3
(g13
g5
NtRp100
(dp101
g16
(lp102
g18
ag92
asg20
g96
sg21
S'TwistedManhole'
p103
sg10
g94
sbag3
(g13
g5
NtRp104
(dp105
g16
(lp106
g18
ag92
asg20
g96
sg21
S'TwistedSSH'
p107
sg10
g94
sbasbsS'twisted_inet'
p108
g3
(g4
g5
NtRp109
(dp110
g8
S'twisted.plugins.twisted_inet'
p111
sg10
Nsg11
(lp112
g3
(g13
g5
NtRp113
(dp114
g16
(lp115
g18
ag92
asg20
g109
sg21
S'TwistedINETD'
p116
sg10
g94
sbasbsS'cred_file'
p117
g3
(g4
g5
NtRp118
(dp119
g8
S'twisted.plugins.cred_file'
p120
sg10
S"\nCred plugin for a file of the format 'username:password'.\n"
p121
sg11
(lp122
g3
(g13
g5
NtRp123
(dp124
g16
(lp125
g81
ag18
asg20
g118
sg21
S'theFileCheckerFactory'
p126
sg10
S'\n    A factory for instances of L{FilePasswordDB}.\n    '
p127
sbasbsS'twisted_words'
p128
g3
(g4
g5
NtRp129
(dp130
g8
S'twisted.plugins.twisted_words'
p131
sg10
Nsg11
(lp132
g3
(g13
g5
NtRp133
(dp134
g16
(lp135
g18
ag92
asg20
g129
sg21
S'TwistedXMPPRouter'
p136
sg10
g94
sbag3
(g13
g5
NtRp137
(dp138
g16
(lp139
g18
actwisted.words.iwords
IProtocolPlugin
p140
asg20
g129
sg21
S'RelayChatInterface'
p141
sg10
Nsbag3
(g13
g5
NtRp142
(dp143
g16
(lp144
g18
ag92
asg20
g129
sg21
S'NewTwistedWords'
p145
sg10
g94
sbag3
(g13
g5
NtRp146
(dp147
g16
(lp148
g18
ag140
asg20
g129
sg21
S'PBChatInterface'
p149
sg10
NsbasbsS'twisted_ftp'
p150
g3
(g4
g5
NtRp151
(dp152
g8
S'twisted.plugins.twisted_ftp'
p153
sg10
Nsg11
(lp154
g3
(g13
g5
NtRp155
(dp156
g16
(lp157
g18
ag92
asg20
g151
sg21
S'TwistedFTP'
p158
sg10
g94
sbasbsS'twisted_news'
p159
g3
(g4
g5
NtRp160
(dp161
g8
S'twisted.plugins.twisted_news'
p162
sg10
Nsg11
(lp163
g3
(g13
g5
NtRp164
(dp165
g16
(lp166
g18
ag92
asg20
g160
sg21
S'TwistedNews'
p167
sg10
g94
sbasbsS'twisted_socks'
p168
g3
(g4
g5
NtRp169
(dp170
g8
S'twisted.plugins.twisted_socks'
p171
sg10
Nsg11
(lp172
g3
(g13
g5
NtRp173
(dp174
g16
(lp175
g18
ag92
asg20
g169
sg21
S'TwistedSOCKS'
p176
sg10
g94
sbasbsS'twisted_trial'
p177
g3
(g4
g5
NtRp178
(dp179
g8
S'twisted.plugins.twisted_trial'
p180
sg10
Nsg11
(lp181
g3
(g13
g5
NtRp182
(dp183
g16
(lp184
g18
actwisted.trial.itrial
IReporter
p185
asg20
g178
sg21
S'Subunit'
p186
sg10
Nsbag3
(g13
g5
NtRp187
(dp188
g16
(lp189
g18
ag185
asg20
g178
sg21
S'BlackAndWhite'
p190
sg10
Nsbag3
(g13
g5
NtRp191
(dp192
g16
(lp193
g18
ag185
asg20
g178
sg21
S'Classic'
p194
sg10
Nsbag3
(g13
g5
NtRp195
(dp196
g16
(lp197
g18
ag185
asg20
g178
sg21
S'Tree'
p198
sg10
Nsbag3
(g13
g5
NtRp199
(dp200
g16
(lp201
g18
ag185
asg20
g178
sg21
S'Timing'
p202
sg10
Nsbag3
(g13
g5
NtRp203
(dp204
g16
(lp205
g18
ag185
asg20
g178
sg21
S'Minimal'
p206
sg10
NsbasbsS'twisted_runner'
p207
g3
(g4
g5
NtRp208
(dp209
g8
S'twisted.plugins.twisted_runner'
p210
sg10
Nsg11
(lp211
g3
(g13
g5
NtRp212
(dp213
g16
(lp214
g18
ag92
asg20
g208
sg21
S'TwistedProcmon'
p215
sg10
g94
sbasbsS'cred_unix'
p216
g3
(g4
g5
NtRp217
(dp218
g8
S'twisted.plugins.cred_unix'
p219
sg10
S'\nCred plugin for UNIX user accounts.\n'
p220
sg11
(lp221
g3
(g13
g5
NtRp222
(dp223
g16
(lp224
g81
ag18
asg20
g217
sg21
S'theUnixCheckerFactory'
p225
sg10
S'\n    A factory for L{UNIXChecker}.\n    '
p226
sbasbsS'cred_anonymous'
p227
g3
(g4
g5
NtRp228
(dp229
g8
S'twisted.plugins.cred_anonymous'
p230
sg10
S'\nCred plugin for anonymous logins.\n'
p231
sg11
(lp232
g3
(g13
g5
NtRp233
(dp234
g16
(lp235
g81
ag18
asg20
g228
sg21
S'theAnonymousCheckerFactory'
p236
sg10
S'\n    Generates checkers that will authenticate an anonymous request.\n    '
p237
sbasbsS'twisted_names'
p238
g3
(g4
g5
NtRp239
(dp240
g8
S'twisted.plugins.twisted_names'
p241
sg10
Nsg11
(lp242
g3
(g13
g5
NtRp243
(dp244
g16
(lp245
g18
ag92
asg20
g239
sg21
S'TwistedNames'
p246
sg10
g94
sbasbsS'cred_sshkeys'
p247
g3
(g4
g5
NtRp248
(dp249
g8
S'twisted.plugins.cred_sshkeys'
p250
sg10
S'\nCred plugin for ssh key login.\n'
p251
sg11
(lp252
g3
(g13
g5
NtRp253
(dp254
g16
(lp255
g81
ag18
asg20
g248
sg21
S'theSSHKeyCheckerFactory'
p256
sg10
S'\n        Generates checkers that will authenticate a SSH public key\n        '
p257
sbasbsS'twisted_mail'
p258
g3
(g4
g5
NtRp259
(dp260
g8
S'twisted.plugins.twisted_mail'
p261
sg10
Nsg11
(lp262
g3
(g13
g5
NtRp263
(dp264
g16
(lp265
g18
ag92
asg20
g259
sg21
S'TwistedMail'
p266
sg10
g94
sbasbsS'twisted_core'
p267
g3
(g4
g5
NtRp268
(dp269
g8
S'twisted.plugins.twisted_core'
p270
sg10
Nsg11
(lp271
g3
(g13
g5
NtRp272
(dp273
g16
(lp274
g18
actwisted.internet.interfaces
IStreamServerEndpointStringParser
p275
asg20
g268
sg21
S'tcp6ServerEndpointParser'
p276
sg10
S'\n    Stream server endpoint string parser for the TCP6ServerEndpoint type.\n\n    @ivar prefix: See L{IStreamServerEndpointStringParser.prefix}.\n    '
p277
sbag3
(g13
g5
NtRp278
(dp279
g16
(lp280
g18
ag275
asg20
g268
sg21
S'stdioEndpointParser'
p281
sg10
S'\n    Stream server endpoint string parser for the Standard I/O type.\n\n    @ivar prefix: See L{IStreamServerEndpointStringParser.prefix}.\n    '
p282
sbag3
(g13
g5
NtRp283
(dp284
g16
(lp285
g18
ag275
asg20
g268
sg21
S'_haProxyServerEndpointParser'
p286
sg10
S'\n    Stream server endpoint string parser for the HAProxyServerEndpoint type.\n\n    @ivar prefix: See L{IStreamServerEndpointStringParser.prefix}.\n    '
p287
sbag3
(g13
g5
NtRp288
(dp289
g16
(lp290
g18
ag275
asg20
g268
sg21
S'systemdEndpointParser'
p291
sg10
S'\n    Stream server endpoint string parser for the I{systemd} endpoint type.\n\n    @ivar prefix: See L{IStreamServerEndpointStringParser.prefix}.\n\n    @ivar _sddaemon: A L{ListenFDs} instance used to translate an index into an\n        actual file descriptor.\n    '
p292
sbag3
(g13
g5
NtRp293
(dp294
g16
(lp295
g18
actwisted.internet.interfaces
IStreamClientEndpointStringParserWithReactor
p296
asg20
g268
sg21
S'tlsClientEndpointParser'
p297
sg10
S'\n    Stream client endpoint string parser for L{wrapClientTLS} with\n    L{HostnameEndpoint}.\n\n    @ivar prefix: See\n        L{IStreamClientEndpointStringParserWithReactor.prefix}.\n    '
p298
sbasbsS'autobahn_twistd'
p299
g3
(g4
g5
NtRp300
(dp301
g8
S'twisted.plugins.autobahn_twistd'
p302
sg10
Nsg11
(lp303
g3
(g13
g5
NtRp304
(dp305
g16
(lp306
g18
ag92
asg20
g300
sg21
S'serviceMaker'
p307
sg10
g94
sbasbsS'twisted_portforward'
p308
g3
(g4
g5
NtRp309
(dp310
g8
S'twisted.plugins.twisted_portforward'
p311
sg10
Nsg11
(lp312
g3
(g13
g5
NtRp313
(dp314
g16
(lp315
g18
ag92
asg20
g309
sg21
S'TwistedPortForward'
p316
sg10
g94
sbasbsS'autobahn_endpoints'
p317
g3
(g4
g5
NtRp318
(dp319
g8
S'twisted.plugins.autobahn_endpoints'
p320
sg10
Nsg11
(lp321
g3
(g13
g5
NtRp322
(dp323
g16
(lp324
g275
ag18
asg20
g318
sg21
S'autobahnServerParser'
p325
sg10
Nsbag3
(g13
g5
NtRp326
(dp327
g16
(lp328
g296
ag18
asg20
g318
sg21
S'autobahnClientParser'
p329
sg10
Nsbasbs.